target datalayout = "e-m:e-p270:32:32-p271:32:32-p272:64:64-i64:64-i128:128-f80:128-n8:16:32:64-S128"
target triple = "x86_64-pc-linux-gnu"

%struct.iseq_compile_data = type { i64, i64, ptr, ptr, ptr, ptr, ptr, %struct.anon.13, %struct.anon.14, i8, i8, i32, i32, i32, i32, i32, i32, i32, ptr, ptr, ptr, ptr, i8 }
%struct.anon.13 = type { ptr, ptr }
%struct.anon.14 = type { ptr, ptr }
%struct.rb_iseq_struct = type { i64, i64, ptr, %union.anon.15 }
%union.anon.15 = type { %struct.anon.16 }
%struct.anon.16 = type { i64, i32 }
%struct.iseq_compile_data_storage = type { ptr, i32, i32, [0 x i8] }

@rb_eRuntimeError = external global i64, align 8

; Function Attrs: nounwind sspstrong uwtable
define internal ptr @compile_data_alloc_with_arena(ptr noundef %0, i64 noundef %1) #0 {
  %3 = alloca ptr, align 8
  %4 = alloca i64, align 8
  %5 = alloca ptr, align 8
  %6 = alloca ptr, align 8
  %7 = alloca i64, align 8
  %8 = alloca i32, align 4
  store ptr %0, ptr %3, align 8, !tbaa !775
  store i64 %1, ptr %4, align 8, !tbaa !7
  call void @llvm.lifetime.start.p0(i64 8, ptr %5) #31
  store ptr null, ptr %5, align 8, !tbaa !152
  call void @llvm.lifetime.start.p0(i64 8, ptr %6) #31
  %9 = load ptr, ptr %3, align 8, !tbaa !775
  %10 = load ptr, ptr %9, align 8, !tbaa !175
  store ptr %10, ptr %6, align 8, !tbaa !175
  call void @llvm.lifetime.start.p0(i64 8, ptr %7) #31
  store i64 0, ptr %7, align 8, !tbaa !7
  %11 = load i64, ptr %4, align 8, !tbaa !7
  %12 = icmp uge i64 %11, 2147483647
  br i1 %12, label %13, label %14

13:                                               ; preds = %2
  call void @rb_memerror() #37
  unreachable

14:                                               ; preds = %2
  %15 = load ptr, ptr %6, align 8, !tbaa !175
  %16 = getelementptr inbounds nuw %struct.iseq_compile_data_storage, ptr %15, i32 0, i32 1
  %17 = load i32, ptr %16, align 8, !tbaa !41
  %18 = zext i32 %17 to i64
  %19 = load i64, ptr %4, align 8, !tbaa !7
  %20 = add i64 %18, %19
  %21 = add i64 %20, 0
  %22 = load ptr, ptr %6, align 8, !tbaa !175
  %23 = getelementptr inbounds nuw %struct.iseq_compile_data_storage, ptr %22, i32 0, i32 2
  %24 = load i32, ptr %23, align 4, !tbaa !41
  %25 = zext i32 %24 to i64
  %26 = icmp ugt i64 %21, %25
  br i1 %26, label %27, label %62

27:                                               ; preds = %14
  call void @llvm.lifetime.start.p0(i64 4, ptr %8) #31
  %28 = load ptr, ptr %6, align 8, !tbaa !175
  %29 = getelementptr inbounds nuw %struct.iseq_compile_data_storage, ptr %28, i32 0, i32 2
  %30 = load i32, ptr %29, align 4, !tbaa !41
  store i32 %30, ptr %8, align 4, !tbaa !41
  br label %31

31:                                               ; preds = %41, %27
  %32 = load i32, ptr %8, align 4, !tbaa !41
  %33 = zext i32 %32 to i64
  %34 = load i64, ptr %4, align 8, !tbaa !7
  %35 = add i64 %34, 0
  %36 = icmp ult i64 %33, %35
  br i1 %36, label %37, label %44

37:                                               ; preds = %31
  %38 = load i32, ptr %8, align 4, !tbaa !41
  %39 = icmp uge i32 %38, 1073741823
  br i1 %39, label %40, label %41

40:                                               ; preds = %37
  call void @rb_memerror() #37
  unreachable

41:                                               ; preds = %37
  %42 = load i32, ptr %8, align 4, !tbaa !41
  %43 = mul i32 %42, 2
  store i32 %43, ptr %8, align 4, !tbaa !41
  br label %31, !llvm.loop !777

44:                                               ; preds = %31
  %45 = load i32, ptr %8, align 4, !tbaa !41
  %46 = zext i32 %45 to i64
  %47 = add i64 %46, 16
  %48 = call noalias nonnull ptr @ruby_xmalloc2(i64 noundef %47, i64 noundef 1) #33
  %49 = load ptr, ptr %6, align 8, !tbaa !175
  %50 = getelementptr inbounds nuw %struct.iseq_compile_data_storage, ptr %49, i32 0, i32 0
  store ptr %48, ptr %50, align 8, !tbaa !175
  %51 = load ptr, ptr %6, align 8, !tbaa !175
  %52 = getelementptr inbounds nuw %struct.iseq_compile_data_storage, ptr %51, i32 0, i32 0
  %53 = load ptr, ptr %52, align 8, !tbaa !175
  %54 = load ptr, ptr %3, align 8, !tbaa !775
  store ptr %53, ptr %54, align 8, !tbaa !175
  store ptr %53, ptr %6, align 8, !tbaa !175
  %55 = load ptr, ptr %6, align 8, !tbaa !175
  %56 = getelementptr inbounds nuw %struct.iseq_compile_data_storage, ptr %55, i32 0, i32 0
  store ptr null, ptr %56, align 8, !tbaa !175
  %57 = load ptr, ptr %6, align 8, !tbaa !175
  %58 = getelementptr inbounds nuw %struct.iseq_compile_data_storage, ptr %57, i32 0, i32 1
  store i32 0, ptr %58, align 8, !tbaa !41
  %59 = load i32, ptr %8, align 4, !tbaa !41
  %60 = load ptr, ptr %6, align 8, !tbaa !175
  %61 = getelementptr inbounds nuw %struct.iseq_compile_data_storage, ptr %60, i32 0, i32 2
  store i32 %59, ptr %61, align 4, !tbaa !41
  call void @llvm.lifetime.end.p0(i64 4, ptr %8) #31
  br label %62

62:                                               ; preds = %44, %14
  %63 = load ptr, ptr %6, align 8, !tbaa !175
  %64 = getelementptr inbounds nuw %struct.iseq_compile_data_storage, ptr %63, i32 0, i32 3
  %65 = load ptr, ptr %6, align 8, !tbaa !175
  %66 = getelementptr inbounds nuw %struct.iseq_compile_data_storage, ptr %65, i32 0, i32 1
  %67 = load i32, ptr %66, align 8, !tbaa !41
  %68 = zext i32 %67 to i64
  %69 = getelementptr [0 x i8], ptr %64, i64 0, i64 %68
  store ptr %69, ptr %5, align 8, !tbaa !152
  %70 = load i64, ptr %4, align 8, !tbaa !7
  %71 = trunc i64 %70 to i32
  %72 = load ptr, ptr %6, align 8, !tbaa !175
  %73 = getelementptr inbounds nuw %struct.iseq_compile_data_storage, ptr %72, i32 0, i32 1
  %74 = load i32, ptr %73, align 8, !tbaa !41
  %75 = add i32 %74, %71
  store i32 %75, ptr %73, align 8, !tbaa !41
  %76 = load ptr, ptr %5, align 8, !tbaa !152
  call void @llvm.lifetime.end.p0(i64 8, ptr %7) #31
  call void @llvm.lifetime.end.p0(i64 8, ptr %6) #31
  call void @llvm.lifetime.end.p0(i64 8, ptr %5) #31
  ret ptr %76
}

; Function Attrs: inlinehint nounwind sspstrong uwtable
define internal ptr @ISEQ_COMPILE_DATA(ptr noundef %0) #3 {
  %2 = alloca ptr, align 8
  %3 = alloca ptr, align 8
  store ptr %0, ptr %3, align 8, !tbaa !11
  %4 = load ptr, ptr %3, align 8, !tbaa !11
  %5 = getelementptr inbounds nuw %struct.rb_iseq_struct, ptr %4, i32 0, i32 0
  %6 = load i64, ptr %5, align 8, !tbaa !46
  %7 = and i64 %6, 262144
  %8 = icmp ne i64 %7, 0
  br i1 %8, label %9, label %13

9:                                                ; preds = %1
  %10 = load ptr, ptr %3, align 8, !tbaa !11
  %11 = getelementptr inbounds nuw %struct.rb_iseq_struct, ptr %10, i32 0, i32 3
  %12 = load ptr, ptr %11, align 8, !tbaa !49
  store ptr %12, ptr %2, align 8
  br label %14

13:                                               ; preds = %1
  store ptr null, ptr %2, align 8
  br label %14

14:                                               ; preds = %13, %9
  %15 = load ptr, ptr %2, align 8
  ret ptr %15
}

; Function Attrs: alwaysinline nounwind
define internal ptr @memset.inline(ptr nonnull %0, i32 %1, i64 %2) #15 {
  %4 = alloca ptr, align 8
  %5 = alloca i32, align 4
  %6 = alloca i64, align 8
  store ptr %0, ptr %4, align 8, !tbaa !152
  store i32 %1, ptr %5, align 4, !tbaa !41
  store i64 %2, ptr %6, align 8, !tbaa !7
  %7 = load ptr, ptr %4, align 8, !tbaa !152
  %8 = load i32, ptr %5, align 4, !tbaa !41
  %9 = load i64, ptr %6, align 8, !tbaa !7
  %10 = load ptr, ptr %4, align 8, !tbaa !152
  %11 = call i64 @llvm.objectsize.i64.p0(ptr %10, i1 false, i1 true, i1 false)
  %12 = call ptr @__memset_chk(ptr noundef %7, i32 noundef %8, i64 noundef %9, i64 noundef %11) #31
  ret ptr %12
}

; Function Attrs: nounwind sspstrong uwtable
define internal ptr @compile_data_alloc(ptr noundef %0, i64 noundef %1) #0 {
  %3 = alloca ptr, align 8
  %4 = alloca i64, align 8
  %5 = alloca ptr, align 8
  store ptr %0, ptr %3, align 8, !tbaa !11
  store i64 %1, ptr %4, align 8, !tbaa !7
  call void @llvm.lifetime.start.p0(i64 8, ptr %5) #31
  %6 = load ptr, ptr %3, align 8, !tbaa !11
  %7 = call ptr @ISEQ_COMPILE_DATA(ptr noundef %6)
  %8 = getelementptr inbounds nuw %struct.iseq_compile_data, ptr %7, i32 0, i32 7
  %9 = getelementptr inbounds nuw %struct.anon.13, ptr %8, i32 0, i32 1
  store ptr %9, ptr %5, align 8, !tbaa !775
  %10 = load ptr, ptr %5, align 8, !tbaa !775
  %11 = load i64, ptr %4, align 8, !tbaa !7
  %12 = call ptr @compile_data_alloc_with_arena(ptr noundef %10, i64 noundef %11)
  call void @llvm.lifetime.end.p0(i64 8, ptr %5) #31
  ret ptr %12
}

; Function Attrs: inlinehint nounwind sspstrong uwtable
define internal ptr @compile_data_calloc2(ptr noundef %0, i64 noundef %1, i64 noundef %2) #3 {
  %4 = alloca ptr, align 8
  %5 = alloca i64, align 8
  %6 = alloca i64, align 8
  %7 = alloca i64, align 8
  %8 = alloca ptr, align 8
  store ptr %0, ptr %4, align 8, !tbaa !11
  store i64 %1, ptr %5, align 8, !tbaa !7
  store i64 %2, ptr %6, align 8, !tbaa !7
  call void @llvm.lifetime.start.p0(i64 8, ptr %7) #31
  %9 = load i64, ptr %5, align 8, !tbaa !7
  %10 = load i64, ptr %6, align 8, !tbaa !7
  %11 = load i64, ptr @rb_eRuntimeError, align 8, !tbaa !7
  %12 = call i64 @rb_size_mul_or_raise(i64 noundef %9, i64 noundef %10, i64 noundef %11)
  store i64 %12, ptr %7, align 8, !tbaa !7
  call void @llvm.lifetime.start.p0(i64 8, ptr %8) #31
  %13 = load ptr, ptr %4, align 8, !tbaa !11
  %14 = load i64, ptr %7, align 8, !tbaa !7
  %15 = call ptr @compile_data_alloc(ptr noundef %13, i64 noundef %14)
  store ptr %15, ptr %8, align 8, !tbaa !152
  %16 = load ptr, ptr %8, align 8, !tbaa !152
  %17 = load i64, ptr %7, align 8, !tbaa !7
  %18 = call ptr @memset.inline(ptr noundef %16, i32 noundef 0, i64 noundef %17) #31
  %19 = load ptr, ptr %8, align 8, !tbaa !152
  call void @llvm.lifetime.end.p0(i64 8, ptr %8) #31
  call void @llvm.lifetime.end.p0(i64 8, ptr %7) #31
  ret ptr %19
}