; Function Attrs: inlinehint nounwind sspstrong uwtable
define internal fastcc noundef ptr @compile_data_calloc2(ptr noundef readonly captures(none) %0, i64 noundef range(i64 -1, 255) %1, i64 noundef range(i64 1, 255) %2) unnamed_addr #15 {
  %4 = load i64, ptr @rb_eRuntimeError, align 8, !tbaa !37
  %5 = tail call i64 @rb_size_mul_or_raise(i64 noundef %1, i64 noundef %2, i64 noundef %4) #38
  %6 = load i64, ptr %0, align 8, !tbaa !19
  %7 = and i64 %6, 262144
  %.not.i.i = icmp eq i64 %7, 0
  br i1 %.not.i.i, label %ISEQ_COMPILE_DATA.exit.i, label %8

8:                                                ; preds = %3
  %9 = getelementptr inbounds nuw i8, ptr %0, i64 24
  %10 = load ptr, ptr %9, align 8, !tbaa !22
  br label %ISEQ_COMPILE_DATA.exit.i

ISEQ_COMPILE_DATA.exit.i:                         ; preds = %8, %3
  %.0.i.i = phi ptr [ %10, %8 ], [ null, %3 ]
  %11 = getelementptr inbounds nuw i8, ptr %.0.i.i, i64 64
  %12 = load ptr, ptr %11, align 8, !tbaa !38
  %13 = icmp ugt i64 %5, 2147483646
  br i1 %13, label %14, label %15

14:                                               ; preds = %ISEQ_COMPILE_DATA.exit.i
  tail call void @rb_memerror() #39
  unreachable

15:                                               ; preds = %ISEQ_COMPILE_DATA.exit.i
  %16 = getelementptr inbounds nuw i8, ptr %12, i64 8
  %17 = load i32, ptr %16, align 8, !tbaa !39
  %18 = zext i32 %17 to i64
  %19 = add nuw nsw i64 %5, %18
  %20 = getelementptr inbounds nuw i8, ptr %12, i64 12
  %21 = load i32, ptr %20, align 4, !tbaa !39
  %22 = zext i32 %21 to i64
  %23 = icmp samesign ugt i64 %19, %22
  br i1 %23, label %.preheader.i.i, label %compile_data_alloc.exit

.preheader.i.i:                                   ; preds = %15
  %24 = icmp samesign ugt i64 %5, %22
  br i1 %24, label %.lr.ph.i.i, label %._crit_edge.i.i

.lr.ph.i.i:                                       ; preds = %.preheader.i.i, %27
  %.027.i.i = phi i32 [ %28, %27 ], [ %21, %.preheader.i.i ]
  %25 = icmp ugt i32 %.027.i.i, 1073741822
  br i1 %25, label %26, label %27

26:                                               ; preds = %.lr.ph.i.i
  tail call void @rb_memerror() #39
  unreachable

27:                                               ; preds = %.lr.ph.i.i
  %28 = shl nuw nsw i32 %.027.i.i, 1
  %29 = zext nneg i32 %28 to i64
  %30 = icmp ugt i64 %5, %29
  br i1 %30, label %.lr.ph.i.i, label %._crit_edge.i.i, !llvm.loop !40

._crit_edge.i.i:                                  ; preds = %27, %.preheader.i.i
  %.0.lcssa.i.i = phi i32 [ %21, %.preheader.i.i ], [ %28, %27 ]
  %.lcssa.i.i = phi i64 [ %22, %.preheader.i.i ], [ %29, %27 ]
  %31 = add nuw nsw i64 %.lcssa.i.i, 16
  %32 = tail call noalias nonnull ptr @ruby_xmalloc2(i64 noundef %31, i64 noundef 1) #40
  store ptr %32, ptr %12, align 8, !tbaa !38
  store ptr %32, ptr %11, align 8, !tbaa !38
  store ptr null, ptr %32, align 8, !tbaa !38
  %33 = getelementptr inbounds nuw i8, ptr %32, i64 8
  store i32 0, ptr %33, align 8, !tbaa !39
  %34 = getelementptr inbounds nuw i8, ptr %32, i64 12
  store i32 %.0.lcssa.i.i, ptr %34, align 4, !tbaa !39
  br label %compile_data_alloc.exit

compile_data_alloc.exit:                          ; preds = %15, %._crit_edge.i.i
  %35 = phi i32 [ 0, %._crit_edge.i.i ], [ %17, %15 ]
  %.022.i.i = phi ptr [ %32, %._crit_edge.i.i ], [ %12, %15 ]
  %36 = getelementptr inbounds nuw i8, ptr %.022.i.i, i64 16
  %37 = getelementptr inbounds nuw i8, ptr %.022.i.i, i64 8
  %38 = zext i32 %35 to i64
  %39 = getelementptr [0 x i8], ptr %36, i64 0, i64 %38
  %40 = trunc nuw nsw i64 %5 to i32
  %41 = add i32 %35, %40
  store i32 %41, ptr %37, align 8, !tbaa !39
  tail call void @llvm.memset.p0.i64(ptr noundef nonnull align 1 %39, i8 noundef 0, i64 noundef %5, i1 noundef false) #38
  ret ptr %39
}